; Function Attrs: mustprogress uwtable
define noundef i32 @_Z10gmx_fft_1dP7gmx_fft17gmx_fft_directionPvS2_(ptr noundef readonly captures(none) %0, i32 noundef %1, ptr noundef %2, ptr noundef %3) local_unnamed_addr #0 personality ptr @__gxx_personality_v0 {
  %5 = alloca %"class.std::filesystem::__cxx11::path", align 8
  %6 = getelementptr inbounds nuw i8, ptr %0, i64 64
  %7 = load i32, ptr %6, align 8, !tbaa !17
  %8 = icmp eq i32 %7, 1
  br i1 %8, label %12, label %9

9:                                                ; preds = %4
  %10 = getelementptr inbounds nuw i8, ptr %0, i64 68
  %11 = load i32, ptr %10, align 4, !tbaa !19
  %.not = icmp ne i32 %11, 1
  %or.cond = icmp ugt i32 %1, 1
  %or.cond17 = or i1 %or.cond, %.not
  br i1 %or.cond17, label %12, label %16

12:                                               ; preds = %9, %4
  call void @llvm.lifetime.start.p0(i64 40, ptr nonnull %5) #13
  call void @_ZNSt10filesystem7__cxx114pathC2IA123_cS1_EERKT_NS1_6formatE(ptr noundef nonnull align 8 dereferenceable(40) %5, ptr noundef nonnull align 1 dereferenceable(123) @.str, i8 noundef zeroext 2)
  invoke void (i32, ptr, i32, ptr, ...) @_Z9gmx_fataliRKNSt10filesystem7__cxx114pathEiPKcz(i32 noundef 0, ptr noundef nonnull align 8 dereferenceable(40) %5, i32 noundef 549, ptr noundef nonnull @.str.5) #14
          to label %13 unwind label %14

13:                                               ; preds = %12
  unreachable

14:                                               ; preds = %12
  %15 = landingpad { ptr, i32 }
          cleanup
  call void @_ZNSt10filesystem7__cxx114pathD2Ev(ptr noundef nonnull align 8 dereferenceable(40) %5) #13
  call void @llvm.lifetime.end.p0(i64 40, ptr nonnull %5) #13
  resume { ptr, i32 } %15

16:                                               ; preds = %9
  %17 = icmp eq ptr %2, %3
  %18 = ptrtoint ptr %2 to i64
  %19 = ptrtoint ptr %3 to i64
  %20 = or i64 %19, %18
  %21 = and i64 %20, 15
  %22 = icmp eq i64 %21, 0
  %23 = zext i1 %22 to i64
  %24 = zext i1 %17 to i64
  %25 = xor i32 %1, 1
  %26 = zext nneg i32 %25 to i64
  %27 = getelementptr inbounds nuw [2 x [2 x [2 x ptr]]], ptr %0, i64 0, i64 %23, i64 %24, i64 %26
  %28 = load ptr, ptr %27, align 8, !tbaa !11
  tail call void @fftwf_execute_dft(ptr noundef %28, ptr noundef %2, ptr noundef %3)
  ret i32 0
}